; ModuleID = '52/189.c'
source_filename = "52/189.c"
target datalayout = "e-m:e-p270:32:32-p271:32:32-p272:64:64-i64:64-f80:128-n8:16:32:64-S128"
target triple = "x86_64-pc-linux-gnu"

@.str = private unnamed_addr constant [7 x i8] c"%d %d\0A\00", align 1
@.str.1 = private unnamed_addr constant [3 x i8] c"%d\00", align 1
@.str.2 = private unnamed_addr constant [4 x i8] c" %d\00", align 1
@.str.3 = private unnamed_addr constant [2 x i8] c"\0A\00", align 1

; Function Attrs: noinline nounwind uwtable
define dso_local i32 @main() #0 {
  %1 = alloca i32, align 4
  %2 = alloca i32, align 4
  %3 = alloca i32, align 4
  %4 = alloca i32, align 4
  %5 = alloca i8*, align 8
  %6 = alloca i64, align 8
  %7 = alloca i32, align 4
  %8 = alloca i32, align 4
  %9 = alloca i32, align 4
  store i32 0, i32* %1, align 4
  %10 = call i32 (i8*, ...) @__isoc99_scanf(i8* getelementptr inbounds ([7 x i8], [7 x i8]* @.str, i64 0, i64 0), i32* %2, i32* %3)
  %11 = load i32, i32* %2, align 4
  %12 = zext i32 %11 to i64
  %13 = call i8* @llvm.stacksave()
  store i8* %13, i8** %5, align 8
  %14 = alloca i32, i64 %12, align 16
  store i64 %12, i64* %6, align 8
  %15 = getelementptr inbounds i32, i32* %14, i64 0
  %16 = call i32 (i8*, ...) @__isoc99_scanf(i8* getelementptr inbounds ([3 x i8], [3 x i8]* @.str.1, i64 0, i64 0), i32* %15)
  store i32 1, i32* %7, align 4
  br label %17

17:                                               ; preds = %26, %0
  %18 = load i32, i32* %7, align 4
  %19 = load i32, i32* %2, align 4
  %20 = icmp slt i32 %18, %19
  br i1 %20, label %21, label %29

21:                                               ; preds = %17
  %22 = load i32, i32* %7, align 4
  %23 = sext i32 %22 to i64
  %24 = getelementptr inbounds i32, i32* %14, i64 %23
  %25 = call i32 (i8*, ...) @__isoc99_scanf(i8* getelementptr inbounds ([4 x i8], [4 x i8]* @.str.2, i64 0, i64 0), i32* %24)
  br label %26

26:                                               ; preds = %21
  %27 = load i32, i32* %7, align 4
  %28 = add nsw i32 %27, 1
  store i32 %28, i32* %7, align 4
  br label %17

29:                                               ; preds = %17
  %30 = call i32 (i8*, ...) @__isoc99_scanf(i8* getelementptr inbounds ([2 x i8], [2 x i8]* @.str.3, i64 0, i64 0))
  store i32 1, i32* %8, align 4
  br label %31

31:                                               ; preds = %61, %29
  %32 = load i32, i32* %8, align 4
  %33 = load i32, i32* %3, align 4
  %34 = icmp sle i32 %32, %33
  br i1 %34, label %35, label %64

35:                                               ; preds = %31
  %36 = load i32, i32* %2, align 4
  %37 = sub nsw i32 %36, 1
  %38 = sext i32 %37 to i64
  %39 = getelementptr inbounds i32, i32* %14, i64 %38
  %40 = load i32, i32* %39, align 4
  store i32 %40, i32* %4, align 4
  %41 = load i32, i32* %2, align 4
  %42 = sub nsw i32 %41, 2
  store i32 %42, i32* %9, align 4
  br label %43

43:                                               ; preds = %55, %35
  %44 = load i32, i32* %9, align 4
  %45 = icmp sge i32 %44, 0
  br i1 %45, label %46, label %58

46:                                               ; preds = %43
  %47 = load i32, i32* %9, align 4
  %48 = sext i32 %47 to i64
  %49 = getelementptr inbounds i32, i32* %14, i64 %48
  %50 = load i32, i32* %49, align 4
  %51 = load i32, i32* %9, align 4
  %52 = add nsw i32 %51, 1
  %53 = sext i32 %52 to i64
  %54 = getelementptr inbounds i32, i32* %14, i64 %53
  store i32 %50, i32* %54, align 4
  br label %55

55:                                               ; preds = %46
  %56 = load i32, i32* %9, align 4
  %57 = add nsw i32 %56, -1
  store i32 %57, i32* %9, align 4
  br label %43

58:                                               ; preds = %43
  %59 = load i32, i32* %4, align 4
  %60 = getelementptr inbounds i32, i32* %14, i64 0
  store i32 %59, i32* %60, align 16
  br label %61

61:                                               ; preds = %58
  %62 = load i32, i32* %8, align 4
  %63 = add nsw i32 %62, 1
  store i32 %63, i32* %8, align 4
  br label %31

64:                                               ; preds = %31
  %65 = getelementptr inbounds i32, i32* %14, i64 0
  %66 = load i32, i32* %65, align 16
  %67 = call i32 (i8*, ...) @printf(i8* getelementptr inbounds ([3 x i8], [3 x i8]* @.str.1, i64 0, i64 0), i32 %66)
  store i32 1, i32* %7, align 4
  br label %68

68:                                               ; preds = %78, %64
  %69 = load i32, i32* %7, align 4
  %70 = load i32, i32* %2, align 4
  %71 = icmp slt i32 %69, %70
  br i1 %71, label %72, label %81

72:                                               ; preds = %68
  %73 = load i32, i32* %7, align 4
  %74 = sext i32 %73 to i64
  %75 = getelementptr inbounds i32, i32* %14, i64 %74
  %76 = load i32, i32* %75, align 4
  %77 = call i32 (i8*, ...) @printf(i8* getelementptr inbounds ([4 x i8], [4 x i8]* @.str.2, i64 0, i64 0), i32 %76)
  br label %78

78:                                               ; preds = %72
  %79 = load i32, i32* %7, align 4
  %80 = add nsw i32 %79, 1
  store i32 %80, i32* %7, align 4
  br label %68

81:                                               ; preds = %68
  store i32 0, i32* %1, align 4
  %82 = load i8*, i8** %5, align 8
  call void @llvm.stackrestore(i8* %82)
  %83 = load i32, i32* %1, align 4
  ret i32 %83
}

declare dso_local i32 @__isoc99_scanf(i8*, ...) #1

; Function Attrs: nounwind
declare i8* @llvm.stacksave() #2

declare dso_local i32 @printf(i8*, ...) #1

; Function Attrs: nounwind
declare void @llvm.stackrestore(i8*) #2


!llvm.module.flags = !{!0}
!llvm.ident = !{!1}

!0 = !{i32 1, !"wchar_size", i32 4}
!1 = !{!"clang version 10.0.0-4ubuntu1 "}
